; Function Attrs: mustprogress uwtable
define internal fastcc noundef i64 @_ZN6duckdbL20CalculateSliceLengthIlEEmmmT_b(i64 noundef %0, i64 noundef %1, i64 noundef %2, i1 noundef zeroext %3) unnamed_addr #3 personality ptr @__gxx_personality_v0 {
  %5 = alloca %"class.std::__cxx11::basic_string", align 8
  %6 = alloca %"class.std::allocator", align 1
  %7 = icmp slt i64 %2, 0
  br i1 %7, label %.thread, label %9

.thread:                                          ; preds = %4
  %8 = sub nsw i64 0, %2
  br label %25

9:                                                ; preds = %4
  %10 = icmp eq i64 %2, 0
  %brmerge.not = and i1 %10, %3
  br i1 %brmerge.not, label %11, label %25

11:                                               ; preds = %9
  %12 = tail call ptr @__cxa_allocate_exception(i64 16) #27
  call void @llvm.lifetime.start.p0(i64 32, ptr nonnull %5) #27
  call void @llvm.lifetime.start.p0(i64 1, ptr nonnull %6) #27
  invoke void @_ZNSt7__cxx1112basic_stringIcSt11char_traitsIcESaIcEEC2EPKcRKS3_(ptr noundef nonnull align 8 dereferenceable(32) %5, ptr noundef nonnull @.str.33, ptr noundef nonnull align 1 dereferenceable(1) %6)
          to label %13 unwind label %_ZNSt7__cxx1112basic_stringIcSt11char_traitsIcESaIcEED2Ev.exit.thread

13:                                               ; preds = %11
  invoke void @_ZN6duckdb21InvalidInputExceptionC1ERKNSt7__cxx1112basic_stringIcSt11char_traitsIcESaIcEEE(ptr noundef nonnull align 8 dereferenceable(16) %12, ptr noundef nonnull align 8 dereferenceable(32) %5)
          to label %14 unwind label %16

14:                                               ; preds = %13
  invoke void @__cxa_throw(ptr nonnull %12, ptr nonnull @_ZTIN6duckdb21InvalidInputExceptionE, ptr nonnull @_ZNSt13runtime_errorD2Ev) #29
          to label %35 unwind label %16

_ZNSt7__cxx1112basic_stringIcSt11char_traitsIcESaIcEED2Ev.exit.thread: ; preds = %11
  %15 = landingpad { ptr, i32 }
          cleanup
  call void @llvm.lifetime.end.p0(i64 1, ptr nonnull %6) #27
  call void @llvm.lifetime.end.p0(i64 32, ptr nonnull %5) #27
  br label %24

16:                                               ; preds = %14, %13
  %.0 = phi i1 [ false, %14 ], [ true, %13 ]
  %17 = landingpad { ptr, i32 }
          cleanup
  %18 = load ptr, ptr %5, align 8, !tbaa !139
  %19 = getelementptr inbounds nuw i8, ptr %5, i64 16
  %20 = icmp eq ptr %18, %19
  br i1 %20, label %_ZNKSt7__cxx1112basic_stringIcSt11char_traitsIcESaIcEE11_M_is_localEv.exit.thread.i.i, label %_ZNSt7__cxx1112basic_stringIcSt11char_traitsIcESaIcEED2Ev.exit

_ZNKSt7__cxx1112basic_stringIcSt11char_traitsIcESaIcEE11_M_is_localEv.exit.thread.i.i: ; preds = %16
  %21 = getelementptr inbounds nuw i8, ptr %5, i64 8
  %22 = load i64, ptr %21, align 8, !tbaa !140
  %23 = icmp ult i64 %22, 16
  call void @llvm.assume(i1 %23)
  call void @llvm.lifetime.end.p0(i64 1, ptr nonnull %6) #27
  call void @llvm.lifetime.end.p0(i64 32, ptr nonnull %5) #27
  br i1 %.0, label %24, label %34

_ZNSt7__cxx1112basic_stringIcSt11char_traitsIcESaIcEED2Ev.exit: ; preds = %16
  call void @_ZdlPv(ptr noundef %18) #31
  call void @llvm.lifetime.end.p0(i64 1, ptr nonnull %6) #27
  call void @llvm.lifetime.end.p0(i64 32, ptr nonnull %5) #27
  br i1 %.0, label %24, label %34

24:                                               ; preds = %_ZNKSt7__cxx1112basic_stringIcSt11char_traitsIcESaIcEE11_M_is_localEv.exit.thread.i.i, %_ZNSt7__cxx1112basic_stringIcSt11char_traitsIcESaIcEED2Ev.exit.thread, %_ZNSt7__cxx1112basic_stringIcSt11char_traitsIcESaIcEED2Ev.exit
  %.pn41 = phi { ptr, i32 } [ %15, %_ZNSt7__cxx1112basic_stringIcSt11char_traitsIcESaIcEED2Ev.exit.thread ], [ %17, %_ZNSt7__cxx1112basic_stringIcSt11char_traitsIcESaIcEED2Ev.exit ], [ %17, %_ZNKSt7__cxx1112basic_stringIcSt11char_traitsIcESaIcEE11_M_is_localEv.exit.thread.i.i ]
  call void @__cxa_free_exception(ptr %12) #27
  br label %34

25:                                               ; preds = %.thread, %9
  %.02537 = phi i64 [ %8, %.thread ], [ %2, %9 ]
  %26 = icmp eq i64 %.02537, 1
  %27 = sub i64 %1, %0
  br i1 %26, label %33, label %28

28:                                               ; preds = %25
  %.not = icmp ult i64 %.02537, %27
  br i1 %.not, label %29, label %33

29:                                               ; preds = %28
  %30 = urem i64 %27, %.02537
  %.not29 = icmp ne i64 %30, 0
  %31 = udiv i64 %27, %.02537
  %32 = zext i1 %.not29 to i64
  %spec.select = add i64 %31, %32
  br label %33

33:                                               ; preds = %29, %25, %28
  %.024 = phi i64 [ 1, %28 ], [ %27, %25 ], [ %spec.select, %29 ]
  ret i64 %.024

34:                                               ; preds = %_ZNKSt7__cxx1112basic_stringIcSt11char_traitsIcESaIcEE11_M_is_localEv.exit.thread.i.i, %_ZNSt7__cxx1112basic_stringIcSt11char_traitsIcESaIcEED2Ev.exit, %24
  %.pn40 = phi { ptr, i32 } [ %17, %_ZNSt7__cxx1112basic_stringIcSt11char_traitsIcESaIcEED2Ev.exit ], [ %.pn41, %24 ], [ %17, %_ZNKSt7__cxx1112basic_stringIcSt11char_traitsIcESaIcEE11_M_is_localEv.exit.thread.i.i ]
  resume { ptr, i32 } %.pn40

35:                                               ; preds = %14
  unreachable
}